; Function Attrs: nounwind uwtable
define ptr @l___private_Lean_Parser_Extension_0__Lean_Parser_withNamespaces___boxed(ptr noundef %0, ptr noundef %1, ptr noundef %2, ptr noundef %3, ptr noundef %4) local_unnamed_addr #1 {
  %6 = ptrtoint ptr %1 to i64
  %7 = and i64 %6, 1
  %.not = icmp eq i64 %7, 0
  br i1 %.not, label %8, label %lean_dec.exit

8:                                                ; preds = %5
  %9 = load i32, ptr %1, align 4, !tbaa !4
  %10 = icmp sgt i32 %9, 1
  br i1 %10, label %11, label %13, !prof !11

11:                                               ; preds = %8
  %12 = add nsw i32 %9, -1
  store i32 %12, ptr %1, align 4, !tbaa !4
  br label %lean_dec.exit

13:                                               ; preds = %8
  %.not.i = icmp eq i32 %9, 0
  br i1 %.not.i, label %lean_dec.exit, label %14

14:                                               ; preds = %13
  tail call void @lean_dec_ref_cold(ptr noundef nonnull %1) #6
  br label %lean_dec.exit

lean_dec.exit:                                    ; preds = %14, %13, %11, %5
  tail call void @lean_inc_heartbeat() #6
  %15 = tail call noalias ptr @mi_malloc_small(i64 noundef 40) #6
  %16 = icmp eq ptr %15, null
  br i1 %16, label %17, label %l___private_Lean_Parser_Extension_0__Lean_Parser_withNamespaces.exit

17:                                               ; preds = %lean_dec.exit
  tail call void @lean_internal_panic_out_of_memory() #7
  unreachable

l___private_Lean_Parser_Extension_0__Lean_Parser_withNamespaces.exit: ; preds = %lean_dec.exit
  %18 = and i64 %6, 510
  %19 = or disjoint i64 %18, 1
  %20 = inttoptr i64 %19 to ptr
  %21 = getelementptr inbounds nuw i8, ptr %15, i64 4
  store i32 1, ptr %15, align 4, !tbaa !4
  store i32 -184549336, ptr %21, align 4
  %22 = getelementptr inbounds nuw i8, ptr %15, i64 8
  store ptr @l___private_Lean_Parser_Extension_0__Lean_Parser_withNamespaces___lambda__1___boxed, ptr %22, align 8, !tbaa !9
  %23 = getelementptr inbounds nuw i8, ptr %15, i64 16
  store i16 3, ptr %23, align 8, !tbaa !14
  %24 = getelementptr inbounds nuw i8, ptr %15, i64 18
  store i16 2, ptr %24, align 2, !tbaa !14
  %25 = getelementptr inbounds nuw i8, ptr %15, i64 24
  store ptr %0, ptr %25, align 8, !tbaa !9
  %26 = getelementptr inbounds nuw i8, ptr %15, i64 32
  store ptr %20, ptr %26, align 8, !tbaa !9
  %27 = tail call ptr @l_Lean_Parser_adaptUncacheableContextFn(ptr noundef nonnull %15, ptr noundef %2, ptr noundef %3, ptr noundef %4) #6
  ret ptr %27
}